; Function Attrs: nounwind uwtable
define internal void @add_error_token(ptr nocapture noundef %0, ptr noundef %1, ...) unnamed_addr #0 {
  %3 = alloca [1 x %struct.__va_list_tag], align 16
  %4 = getelementptr inbounds i8, ptr %0, i64 112
  store i32 0, ptr %4, align 8
  %5 = getelementptr inbounds i8, ptr %0, i64 24
  %6 = load ptr, ptr %5, align 8
  %7 = getelementptr inbounds i8, ptr %0, i64 16
  %8 = load ptr, ptr %7, align 8
  %9 = ptrtoint ptr %6 to i64
  %10 = ptrtoint ptr %8 to i64
  %11 = sub i64 %9, %10
  %12 = getelementptr inbounds i8, ptr %0, i64 64
  %13 = getelementptr inbounds i8, ptr %0, i64 72
  store i64 %11, ptr %13, align 8
  store ptr %8, ptr %12, align 8
  %14 = getelementptr inbounds i8, ptr %0, i64 36
  %15 = load i32, ptr %14, align 4
  %16 = getelementptr inbounds i8, ptr %0, i64 32
  %17 = load i32, ptr %16, align 8
  %18 = icmp eq i32 %15, %17
  br i1 %18, label %19, label %30

19:                                               ; preds = %2
  %20 = getelementptr inbounds i8, ptr %0, i64 40
  %21 = load ptr, ptr %20, align 8
  %22 = ptrtoint ptr %21 to i64
  %23 = sub i64 %10, %22
  %24 = icmp sgt i64 %23, 254
  %25 = trunc i64 %23 to i8
  %26 = add i8 %25, 1
  %.0.i.i = select i1 %24, i8 0, i8 %26
  %27 = icmp sgt i64 %11, 255
  %28 = trunc i64 %11 to i8
  %29 = select i1 %27, i8 0, i8 %28
  br label %set_generic_token.exit

30:                                               ; preds = %2
  %31 = getelementptr inbounds i8, ptr %0, i64 48
  %32 = load ptr, ptr %31, align 8
  %33 = ptrtoint ptr %32 to i64
  %34 = sub i64 %10, %33
  %35 = icmp sgt i64 %34, 254
  %36 = trunc i64 %34 to i8
  %37 = add i8 %36, 1
  %.0.i26.i = select i1 %35, i8 0, i8 %37
  br label %set_generic_token.exit

set_generic_token.exit:                           ; preds = %19, %30
  %.024.in.i = phi i8 [ %.0.i.i, %19 ], [ %.0.i26.i, %30 ]
  %.0.i = phi i8 [ %29, %19 ], [ 1, %30 ]
  %38 = getelementptr inbounds i8, ptr %0, i64 106
  store i8 %.0.i, ptr %38, align 2
  %39 = getelementptr inbounds i8, ptr %0, i64 107
  store i8 %.024.in.i, ptr %39, align 1
  %40 = getelementptr inbounds i8, ptr %0, i64 108
  store i32 %15, ptr %40, align 4
  call void @llvm.va_start.p0(ptr nonnull %3)
  %41 = getelementptr inbounds i8, ptr %0, i64 104
  %42 = load i64, ptr %41, align 8
  call void @sema_verror_range(i64 %42, ptr noundef %1, ptr noundef nonnull %3) #10
  call void @llvm.va_end.p0(ptr nonnull %3)
  ret void
}